target datalayout = "e-m:e-p270:32:32-p271:32:32-p272:64:64-i64:64-i128:128-f80:128-n8:16:32:64-S128"
target triple = "x86_64-pc-linux-gnu"

%struct.POLICYQUALINFO_st = type { ptr, %union.anon }
%union.anon = type { ptr }
%struct.asn1_string_st = type { i32, i32, ptr, i64 }
%struct.USERNOTICE_st = type { ptr, ptr }
%struct.NOTICEREF_st = type { ptr, ptr }

@.str.6 = private unnamed_addr constant [1 x i8] zeroinitializer, align 1
@.str.7 = private unnamed_addr constant [2 x i8] c"\0A\00", align 1
@.str.22 = private unnamed_addr constant [34 x i8] c"../openssl/crypto/x509/v3_cpols.c\00", align 1
@.str.41 = private unnamed_addr constant [13 x i8] c"%*sCPS: %.*s\00", align 1
@.str.42 = private unnamed_addr constant [17 x i8] c"%*sUser Notice:\0A\00", align 1
@.str.43 = private unnamed_addr constant [23 x i8] c"%*sUnknown Qualifier: \00", align 1
@.str.44 = private unnamed_addr constant [23 x i8] c"%*sOrganization: %.*s\0A\00", align 1
@.str.45 = private unnamed_addr constant [14 x i8] c"%*sNumber%s: \00", align 1
@.str.46 = private unnamed_addr constant [2 x i8] c"s\00", align 1
@.str.47 = private unnamed_addr constant [3 x i8] c", \00", align 1
@.str.48 = private unnamed_addr constant [7 x i8] c"(null)\00", align 1
@.str.49 = private unnamed_addr constant [23 x i8] c"%*sExplicit Text: %.*s\00", align 1

; Function Attrs: inlinehint nounwind uwtable
define internal ptr @ossl_check_const_ASN1_INTEGER_sk_type(ptr noundef %0) #3 {
  %2 = alloca ptr, align 8
  store ptr %0, ptr %2, align 8, !tbaa !88
  %3 = load ptr, ptr %2, align 8, !tbaa !88
  ret ptr %3
}

; Function Attrs: nounwind uwtable
define internal void @print_notice(ptr noundef %0, ptr noundef %1, i32 noundef %2) #0 {
  %4 = alloca ptr, align 8
  %5 = alloca ptr, align 8
  %6 = alloca i32, align 4
  %7 = alloca i32, align 4
  %8 = alloca ptr, align 8
  %9 = alloca ptr, align 8
  %10 = alloca ptr, align 8
  %11 = alloca i32, align 4
  store ptr %0, ptr %4, align 8, !tbaa !10
  store ptr %1, ptr %5, align 8, !tbaa !50
  store i32 %2, ptr %6, align 4, !tbaa !12
  call void @llvm.lifetime.start.p0(i64 4, ptr %7) #5
  %12 = load ptr, ptr %5, align 8, !tbaa !50
  %13 = getelementptr inbounds nuw %struct.USERNOTICE_st, ptr %12, i32 0, i32 0
  %14 = load ptr, ptr %13, align 8, !tbaa !79
  %15 = icmp ne ptr %14, null
  br i1 %15, label %16, label %99

16:                                               ; preds = %3
  call void @llvm.lifetime.start.p0(i64 8, ptr %8) #5
  %17 = load ptr, ptr %5, align 8, !tbaa !50
  %18 = getelementptr inbounds nuw %struct.USERNOTICE_st, ptr %17, i32 0, i32 0
  %19 = load ptr, ptr %18, align 8, !tbaa !79
  store ptr %19, ptr %8, align 8, !tbaa !54
  %20 = load ptr, ptr %4, align 8, !tbaa !10
  %21 = load i32, ptr %6, align 4, !tbaa !12
  %22 = load ptr, ptr %8, align 8, !tbaa !54
  %23 = getelementptr inbounds nuw %struct.NOTICEREF_st, ptr %22, i32 0, i32 0
  %24 = load ptr, ptr %23, align 8, !tbaa !80
  %25 = getelementptr inbounds nuw %struct.asn1_string_st, ptr %24, i32 0, i32 0
  %26 = load i32, ptr %25, align 8, !tbaa !70
  %27 = load ptr, ptr %8, align 8, !tbaa !54
  %28 = getelementptr inbounds nuw %struct.NOTICEREF_st, ptr %27, i32 0, i32 0
  %29 = load ptr, ptr %28, align 8, !tbaa !80
  %30 = getelementptr inbounds nuw %struct.asn1_string_st, ptr %29, i32 0, i32 2
  %31 = load ptr, ptr %30, align 8, !tbaa !72
  %32 = call i32 (ptr, ptr, ...) @BIO_printf(ptr noundef %20, ptr noundef @.str.44, i32 noundef %21, ptr noundef @.str.6, i32 noundef %26, ptr noundef %31)
  %33 = load ptr, ptr %4, align 8, !tbaa !10
  %34 = load i32, ptr %6, align 4, !tbaa !12
  %35 = load ptr, ptr %8, align 8, !tbaa !54
  %36 = getelementptr inbounds nuw %struct.NOTICEREF_st, ptr %35, i32 0, i32 1
  %37 = load ptr, ptr %36, align 8, !tbaa !84
  %38 = call ptr @ossl_check_const_ASN1_INTEGER_sk_type(ptr noundef %37)
  %39 = call i32 @OPENSSL_sk_num(ptr noundef %38)
  %40 = icmp sgt i32 %39, 1
  %41 = select i1 %40, ptr @.str.46, ptr @.str.6
  %42 = call i32 (ptr, ptr, ...) @BIO_printf(ptr noundef %33, ptr noundef @.str.45, i32 noundef %34, ptr noundef @.str.6, ptr noundef %41)
  store i32 0, ptr %7, align 4, !tbaa !12
  br label %43

43:                                               ; preds = %84, %16
  %44 = load i32, ptr %7, align 4, !tbaa !12
  %45 = load ptr, ptr %8, align 8, !tbaa !54
  %46 = getelementptr inbounds nuw %struct.NOTICEREF_st, ptr %45, i32 0, i32 1
  %47 = load ptr, ptr %46, align 8, !tbaa !84
  %48 = call ptr @ossl_check_const_ASN1_INTEGER_sk_type(ptr noundef %47)
  %49 = call i32 @OPENSSL_sk_num(ptr noundef %48)
  %50 = icmp slt i32 %44, %49
  br i1 %50, label %51, label %87

51:                                               ; preds = %43
  call void @llvm.lifetime.start.p0(i64 8, ptr %9) #5
  call void @llvm.lifetime.start.p0(i64 8, ptr %10) #5
  %52 = load ptr, ptr %8, align 8, !tbaa !54
  %53 = getelementptr inbounds nuw %struct.NOTICEREF_st, ptr %52, i32 0, i32 1
  %54 = load ptr, ptr %53, align 8, !tbaa !84
  %55 = call ptr @ossl_check_const_ASN1_INTEGER_sk_type(ptr noundef %54)
  %56 = load i32, ptr %7, align 4, !tbaa !12
  %57 = call ptr @OPENSSL_sk_value(ptr noundef %55, i32 noundef %56)
  store ptr %57, ptr %9, align 8, !tbaa !89
  %58 = load i32, ptr %7, align 4, !tbaa !12
  %59 = icmp ne i32 %58, 0
  br i1 %59, label %60, label %63

60:                                               ; preds = %51
  %61 = load ptr, ptr %4, align 8, !tbaa !10
  %62 = call i32 @BIO_puts(ptr noundef %61, ptr noundef @.str.47)
  br label %63

63:                                               ; preds = %60, %51
  %64 = load ptr, ptr %9, align 8, !tbaa !89
  %65 = icmp eq ptr %64, null
  br i1 %65, label %66, label %69

66:                                               ; preds = %63
  %67 = load ptr, ptr %4, align 8, !tbaa !10
  %68 = call i32 @BIO_puts(ptr noundef %67, ptr noundef @.str.48)
  br label %80

69:                                               ; preds = %63
  %70 = load ptr, ptr %9, align 8, !tbaa !89
  %71 = call ptr @i2s_ASN1_INTEGER(ptr noundef null, ptr noundef %70)
  store ptr %71, ptr %10, align 8, !tbaa !25
  %72 = load ptr, ptr %10, align 8, !tbaa !25
  %73 = icmp eq ptr %72, null
  br i1 %73, label %74, label %75

74:                                               ; preds = %69
  store i32 1, ptr %11, align 4
  br label %81

75:                                               ; preds = %69
  %76 = load ptr, ptr %4, align 8, !tbaa !10
  %77 = load ptr, ptr %10, align 8, !tbaa !25
  %78 = call i32 @BIO_puts(ptr noundef %76, ptr noundef %77)
  %79 = load ptr, ptr %10, align 8, !tbaa !25
  call void @CRYPTO_free(ptr noundef %79, ptr noundef @.str.22, i32 noundef 488)
  br label %80

80:                                               ; preds = %75, %66
  store i32 0, ptr %11, align 4
  br label %81

81:                                               ; preds = %80, %74
  call void @llvm.lifetime.end.p0(i64 8, ptr %10) #5
  call void @llvm.lifetime.end.p0(i64 8, ptr %9) #5
  %82 = load i32, ptr %11, align 4
  switch i32 %82, label %96 [
    i32 0, label %83
  ]

83:                                               ; preds = %81
  br label %84

84:                                               ; preds = %83
  %85 = load i32, ptr %7, align 4, !tbaa !12
  %86 = add nsw i32 %85, 1
  store i32 %86, ptr %7, align 4, !tbaa !12
  br label %43, !llvm.loop !91

87:                                               ; preds = %43
  %88 = load ptr, ptr %5, align 8, !tbaa !50
  %89 = getelementptr inbounds nuw %struct.USERNOTICE_st, ptr %88, i32 0, i32 1
  %90 = load ptr, ptr %89, align 8, !tbaa !76
  %91 = icmp ne ptr %90, null
  br i1 %91, label %92, label %95

92:                                               ; preds = %87
  %93 = load ptr, ptr %4, align 8, !tbaa !10
  %94 = call i32 @BIO_puts(ptr noundef %93, ptr noundef @.str.7)
  br label %95

95:                                               ; preds = %92, %87
  store i32 0, ptr %11, align 4
  br label %96

96:                                               ; preds = %95, %81
  call void @llvm.lifetime.end.p0(i64 8, ptr %8) #5
  %97 = load i32, ptr %11, align 4
  switch i32 %97, label %119 [
    i32 0, label %98
  ]

98:                                               ; preds = %96
  br label %99

99:                                               ; preds = %98, %3
  %100 = load ptr, ptr %5, align 8, !tbaa !50
  %101 = getelementptr inbounds nuw %struct.USERNOTICE_st, ptr %100, i32 0, i32 1
  %102 = load ptr, ptr %101, align 8, !tbaa !76
  %103 = icmp ne ptr %102, null
  br i1 %103, label %104, label %118

104:                                              ; preds = %99
  %105 = load ptr, ptr %4, align 8, !tbaa !10
  %106 = load i32, ptr %6, align 4, !tbaa !12
  %107 = load ptr, ptr %5, align 8, !tbaa !50
  %108 = getelementptr inbounds nuw %struct.USERNOTICE_st, ptr %107, i32 0, i32 1
  %109 = load ptr, ptr %108, align 8, !tbaa !76
  %110 = getelementptr inbounds nuw %struct.asn1_string_st, ptr %109, i32 0, i32 0
  %111 = load i32, ptr %110, align 8, !tbaa !70
  %112 = load ptr, ptr %5, align 8, !tbaa !50
  %113 = getelementptr inbounds nuw %struct.USERNOTICE_st, ptr %112, i32 0, i32 1
  %114 = load ptr, ptr %113, align 8, !tbaa !76
  %115 = getelementptr inbounds nuw %struct.asn1_string_st, ptr %114, i32 0, i32 2
  %116 = load ptr, ptr %115, align 8, !tbaa !72
  %117 = call i32 (ptr, ptr, ...) @BIO_printf(ptr noundef %105, ptr noundef @.str.49, i32 noundef %106, ptr noundef @.str.6, i32 noundef %111, ptr noundef %116)
  br label %118

118:                                              ; preds = %104, %99
  store i32 0, ptr %11, align 4
  br label %119

119:                                              ; preds = %118, %96
  call void @llvm.lifetime.end.p0(i64 4, ptr %7) #5
  %120 = load i32, ptr %11, align 4
  switch i32 %120, label %122 [
    i32 0, label %121
    i32 1, label %121
  ]

121:                                              ; preds = %119, %119
  ret void

122:                                              ; preds = %119
  unreachable
}

; Function Attrs: inlinehint nounwind uwtable
define internal ptr @ossl_check_const_POLICYQUALINFO_sk_type(ptr noundef %0) #3 {
  %2 = alloca ptr, align 8
  store ptr %0, ptr %2, align 8, !tbaa !67
  %3 = load ptr, ptr %2, align 8, !tbaa !67
  ret ptr %3
}

; Function Attrs: nounwind uwtable
define internal void @print_qualifiers(ptr noundef %0, ptr noundef %1, i32 noundef %2) #0 {
  %4 = alloca ptr, align 8
  %5 = alloca ptr, align 8
  %6 = alloca i32, align 4
  %7 = alloca ptr, align 8
  %8 = alloca i32, align 4
  store ptr %0, ptr %4, align 8, !tbaa !10
  store ptr %1, ptr %5, align 8, !tbaa !67
  store i32 %2, ptr %6, align 4, !tbaa !12
  call void @llvm.lifetime.start.p0(i64 8, ptr %7) #5
  call void @llvm.lifetime.start.p0(i64 4, ptr %8) #5
  store i32 0, ptr %8, align 4, !tbaa !12
  br label %9

9:                                                ; preds = %65, %3
  %10 = load i32, ptr %8, align 4, !tbaa !12
  %11 = load ptr, ptr %5, align 8, !tbaa !67
  %12 = call ptr @ossl_check_const_POLICYQUALINFO_sk_type(ptr noundef %11)
  %13 = call i32 @OPENSSL_sk_num(ptr noundef %12)
  %14 = icmp slt i32 %10, %13
  br i1 %14, label %15, label %68

15:                                               ; preds = %9
  %16 = load i32, ptr %8, align 4, !tbaa !12
  %17 = icmp sgt i32 %16, 0
  br i1 %17, label %18, label %21

18:                                               ; preds = %15
  %19 = load ptr, ptr %4, align 8, !tbaa !10
  %20 = call i32 @BIO_puts(ptr noundef %19, ptr noundef @.str.7)
  br label %21

21:                                               ; preds = %18, %15
  %22 = load ptr, ptr %5, align 8, !tbaa !67
  %23 = call ptr @ossl_check_const_POLICYQUALINFO_sk_type(ptr noundef %22)
  %24 = load i32, ptr %8, align 4, !tbaa !12
  %25 = call ptr @OPENSSL_sk_value(ptr noundef %23, i32 noundef %24)
  store ptr %25, ptr %7, align 8, !tbaa !46
  %26 = load ptr, ptr %7, align 8, !tbaa !46
  %27 = getelementptr inbounds nuw %struct.POLICYQUALINFO_st, ptr %26, i32 0, i32 0
  %28 = load ptr, ptr %27, align 8, !tbaa !68
  %29 = call i32 @OBJ_obj2nid(ptr noundef %28)
  switch i32 %29, label %54 [
    i32 164, label %30
    i32 165, label %44
  ]

30:                                               ; preds = %21
  %31 = load ptr, ptr %4, align 8, !tbaa !10
  %32 = load i32, ptr %6, align 4, !tbaa !12
  %33 = load ptr, ptr %7, align 8, !tbaa !46
  %34 = getelementptr inbounds nuw %struct.POLICYQUALINFO_st, ptr %33, i32 0, i32 1
  %35 = load ptr, ptr %34, align 8, !tbaa !33
  %36 = getelementptr inbounds nuw %struct.asn1_string_st, ptr %35, i32 0, i32 0
  %37 = load i32, ptr %36, align 8, !tbaa !70
  %38 = load ptr, ptr %7, align 8, !tbaa !46
  %39 = getelementptr inbounds nuw %struct.POLICYQUALINFO_st, ptr %38, i32 0, i32 1
  %40 = load ptr, ptr %39, align 8, !tbaa !33
  %41 = getelementptr inbounds nuw %struct.asn1_string_st, ptr %40, i32 0, i32 2
  %42 = load ptr, ptr %41, align 8, !tbaa !72
  %43 = call i32 (ptr, ptr, ...) @BIO_printf(ptr noundef %31, ptr noundef @.str.41, i32 noundef %32, ptr noundef @.str.6, i32 noundef %37, ptr noundef %42)
  br label %64

44:                                               ; preds = %21
  %45 = load ptr, ptr %4, align 8, !tbaa !10
  %46 = load i32, ptr %6, align 4, !tbaa !12
  %47 = call i32 (ptr, ptr, ...) @BIO_printf(ptr noundef %45, ptr noundef @.str.42, i32 noundef %46, ptr noundef @.str.6)
  %48 = load ptr, ptr %4, align 8, !tbaa !10
  %49 = load ptr, ptr %7, align 8, !tbaa !46
  %50 = getelementptr inbounds nuw %struct.POLICYQUALINFO_st, ptr %49, i32 0, i32 1
  %51 = load ptr, ptr %50, align 8, !tbaa !33
  %52 = load i32, ptr %6, align 4, !tbaa !12
  %53 = add nsw i32 %52, 2
  call void @print_notice(ptr noundef %48, ptr noundef %51, i32 noundef %53)
  br label %64

54:                                               ; preds = %21
  %55 = load ptr, ptr %4, align 8, !tbaa !10
  %56 = load i32, ptr %6, align 4, !tbaa !12
  %57 = add nsw i32 %56, 2
  %58 = call i32 (ptr, ptr, ...) @BIO_printf(ptr noundef %55, ptr noundef @.str.43, i32 noundef %57, ptr noundef @.str.6)
  %59 = load ptr, ptr %4, align 8, !tbaa !10
  %60 = load ptr, ptr %7, align 8, !tbaa !46
  %61 = getelementptr inbounds nuw %struct.POLICYQUALINFO_st, ptr %60, i32 0, i32 0
  %62 = load ptr, ptr %61, align 8, !tbaa !68
  %63 = call i32 @i2a_ASN1_OBJECT(ptr noundef %59, ptr noundef %62)
  br label %64

64:                                               ; preds = %54, %44, %30
  br label %65

65:                                               ; preds = %64
  %66 = load i32, ptr %8, align 4, !tbaa !12
  %67 = add nsw i32 %66, 1
  store i32 %67, ptr %8, align 4, !tbaa !12
  br label %9, !llvm.loop !73

68:                                               ; preds = %9
  call void @llvm.lifetime.end.p0(i64 4, ptr %8) #5
  call void @llvm.lifetime.end.p0(i64 8, ptr %7) #5
  ret void
}