; Function Attrs: nounwind uwtable
define internal fastcc void @print_qualifiers(ptr noundef %0, ptr noundef %1, i32 noundef range(i32 -2147483646, -2147483648) %2) unnamed_addr #1 {
  %4 = tail call i32 @OPENSSL_sk_num(ptr noundef %1) #4
  %5 = icmp sgt i32 %4, 0
  br i1 %5, label %.lr.ph, label %._crit_edge

.lr.ph:                                           ; preds = %3
  %6 = add nsw i32 %2, 2
  br label %7

7:                                                ; preds = %.lr.ph, %print_notice.exit
  %.020 = phi i32 [ 0, %.lr.ph ], [ %72, %print_notice.exit ]
  %.not = icmp eq i32 %.020, 0
  br i1 %.not, label %10, label %8

8:                                                ; preds = %7
  %9 = tail call i32 @BIO_puts(ptr noundef %0, ptr noundef nonnull @.str.7) #4
  br label %10

10:                                               ; preds = %8, %7
  %11 = tail call ptr @OPENSSL_sk_value(ptr noundef %1, i32 noundef %.020) #4
  %12 = load ptr, ptr %11, align 8, !tbaa !19
  %13 = tail call i32 @OBJ_obj2nid(ptr noundef %12) #4
  switch i32 %13, label %68 [
    i32 164, label %14
    i32 165, label %21
  ]

14:                                               ; preds = %10
  %15 = getelementptr inbounds nuw i8, ptr %11, i64 8
  %16 = load ptr, ptr %15, align 8, !tbaa !17
  %17 = load i32, ptr %16, align 8, !tbaa !47
  %18 = getelementptr inbounds nuw i8, ptr %16, i64 8
  %19 = load ptr, ptr %18, align 8, !tbaa !48
  %20 = tail call i32 (ptr, ptr, ...) @BIO_printf(ptr noundef %0, ptr noundef nonnull @.str.41, i32 noundef %2, ptr noundef nonnull @.str.6, i32 noundef %17, ptr noundef %19) #4
  br label %print_notice.exit

21:                                               ; preds = %10
  %22 = tail call i32 (ptr, ptr, ...) @BIO_printf(ptr noundef %0, ptr noundef nonnull @.str.42, i32 noundef %2, ptr noundef nonnull @.str.6) #4
  %23 = getelementptr inbounds nuw i8, ptr %11, i64 8
  %24 = load ptr, ptr %23, align 8, !tbaa !17
  %25 = load ptr, ptr %24, align 8, !tbaa !25
  %.not.i = icmp eq ptr %25, null
  br i1 %.not.i, label %.critedge.thread.i, label %26

26:                                               ; preds = %21
  %27 = load ptr, ptr %25, align 8, !tbaa !26
  %28 = load i32, ptr %27, align 8, !tbaa !47
  %29 = getelementptr inbounds nuw i8, ptr %27, i64 8
  %30 = load ptr, ptr %29, align 8, !tbaa !48
  %31 = tail call i32 (ptr, ptr, ...) @BIO_printf(ptr noundef %0, ptr noundef nonnull @.str.44, i32 noundef range(i32 -2147483644, -2147483648) %6, ptr noundef nonnull @.str.6, i32 noundef %28, ptr noundef %30) #4
  %32 = getelementptr inbounds nuw i8, ptr %25, i64 8
  %33 = load ptr, ptr %32, align 8, !tbaa !33
  %34 = tail call i32 @OPENSSL_sk_num(ptr noundef %33) #4
  %35 = icmp sgt i32 %34, 1
  %36 = select i1 %35, ptr @.str.46, ptr @.str.6
  %37 = tail call i32 (ptr, ptr, ...) @BIO_printf(ptr noundef %0, ptr noundef nonnull @.str.45, i32 noundef range(i32 -2147483644, -2147483648) %6, ptr noundef nonnull @.str.6, ptr noundef nonnull %36) #4
  %38 = load ptr, ptr %32, align 8, !tbaa !33
  %39 = tail call i32 @OPENSSL_sk_num(ptr noundef %38) #4
  %.not3941.i = icmp sgt i32 %39, 0
  br i1 %.not3941.i, label %.lr.ph.i, label %._crit_edge.i

.lr.ph.i:                                         ; preds = %26, %53
  %.03242.i = phi i32 [ %54, %53 ], [ 0, %26 ]
  %40 = load ptr, ptr %32, align 8, !tbaa !33
  %41 = tail call ptr @OPENSSL_sk_value(ptr noundef %40, i32 noundef %.03242.i) #4
  %.not38.i = icmp eq i32 %.03242.i, 0
  br i1 %.not38.i, label %44, label %42

42:                                               ; preds = %.lr.ph.i
  %43 = tail call i32 @BIO_puts(ptr noundef %0, ptr noundef nonnull @.str.47) #4
  br label %44

44:                                               ; preds = %42, %.lr.ph.i
  %45 = icmp eq ptr %41, null
  br i1 %45, label %46, label %48

46:                                               ; preds = %44
  %47 = tail call i32 @BIO_puts(ptr noundef %0, ptr noundef nonnull @.str.48) #4
  br label %53

48:                                               ; preds = %44
  %49 = tail call ptr @i2s_ASN1_INTEGER(ptr noundef null, ptr noundef nonnull %41) #4
  %50 = icmp eq ptr %49, null
  br i1 %50, label %print_notice.exit, label %51

51:                                               ; preds = %48
  %52 = tail call i32 @BIO_puts(ptr noundef %0, ptr noundef nonnull %49) #4
  tail call void @CRYPTO_free(ptr noundef nonnull %49, ptr noundef nonnull @.str.22, i32 noundef 488) #4
  br label %53

53:                                               ; preds = %51, %46
  %54 = add nuw nsw i32 %.03242.i, 1
  %55 = load ptr, ptr %32, align 8, !tbaa !33
  %56 = tail call i32 @OPENSSL_sk_num(ptr noundef %55) #4
  %.not39.i = icmp slt i32 %54, %56
  br i1 %.not39.i, label %.lr.ph.i, label %._crit_edge.i, !llvm.loop !49

._crit_edge.i:                                    ; preds = %53, %26
  %57 = getelementptr inbounds nuw i8, ptr %24, i64 8
  %58 = load ptr, ptr %57, align 8, !tbaa !21
  %.not37.i = icmp eq ptr %58, null
  br i1 %.not37.i, label %.critedge.thread.i, label %59

59:                                               ; preds = %._crit_edge.i
  %60 = tail call i32 @BIO_puts(ptr noundef %0, ptr noundef nonnull @.str.7) #4
  br label %.critedge.thread.i

.critedge.thread.i:                               ; preds = %59, %._crit_edge.i, %21
  %61 = getelementptr inbounds nuw i8, ptr %24, i64 8
  %62 = load ptr, ptr %61, align 8, !tbaa !21
  %.not40.i = icmp eq ptr %62, null
  br i1 %.not40.i, label %print_notice.exit, label %63

63:                                               ; preds = %.critedge.thread.i
  %64 = load i32, ptr %62, align 8, !tbaa !47
  %65 = getelementptr inbounds nuw i8, ptr %62, i64 8
  %66 = load ptr, ptr %65, align 8, !tbaa !48
  %67 = tail call i32 (ptr, ptr, ...) @BIO_printf(ptr noundef %0, ptr noundef nonnull @.str.49, i32 noundef range(i32 -2147483644, -2147483648) %6, ptr noundef nonnull @.str.6, i32 noundef %64, ptr noundef %66) #4
  br label %print_notice.exit

68:                                               ; preds = %10
  %69 = tail call i32 (ptr, ptr, ...) @BIO_printf(ptr noundef %0, ptr noundef nonnull @.str.43, i32 noundef %6, ptr noundef nonnull @.str.6) #4
  %70 = load ptr, ptr %11, align 8, !tbaa !19
  %71 = tail call i32 @i2a_ASN1_OBJECT(ptr noundef %0, ptr noundef %70) #4
  br label %print_notice.exit

print_notice.exit:                                ; preds = %48, %63, %.critedge.thread.i, %14, %68
  %72 = add nuw nsw i32 %.020, 1
  %73 = tail call i32 @OPENSSL_sk_num(ptr noundef %1) #4
  %74 = icmp slt i32 %72, %73
  br i1 %74, label %7, label %._crit_edge, !llvm.loop !50

._crit_edge:                                      ; preds = %print_notice.exit, %3
  ret void
}